target datalayout = "e-m:e-p270:32:32-p271:32:32-p272:64:64-i64:64-i128:128-f80:128-n8:16:32:64-S128"
target triple = "x86_64-pc-linux-gnu"

%"class.gmx::ComputeDebyeScattering" = type <{ ptr, double, double, i64, %"class.std::vector", %"class.std::vector", %"class.std::vector", %"class.std::vector", %"class.std::vector.0", i8, [7 x i8] }>
%"class.std::vector" = type { %"struct.std::_Vector_base" }
%"struct.std::_Vector_base" = type { %"struct.std::_Vector_base<double, std::allocator<double>>::_Vector_impl" }
%"struct.std::_Vector_base<double, std::allocator<double>>::_Vector_impl" = type { %"struct.std::_Vector_base<double, std::allocator<double>>::_Vector_impl_data" }
%"struct.std::_Vector_base<double, std::allocator<double>>::_Vector_impl_data" = type { ptr, ptr, ptr }
%"class.std::vector.0" = type { %"struct.std::_Vector_base.1" }
%"struct.std::_Vector_base.1" = type { %"struct.std::_Vector_base<std::vector<double>, std::allocator<std::vector<double>>>::_Vector_impl" }
%"struct.std::_Vector_base<std::vector<double>, std::allocator<std::vector<double>>>::_Vector_impl" = type { %"struct.std::_Vector_base<std::vector<double>, std::allocator<std::vector<double>>>::_Vector_impl_data" }
%"struct.std::_Vector_base<std::vector<double>, std::allocator<std::vector<double>>>::_Vector_impl_data" = type { ptr, ptr, ptr }
%"struct.gmx::PairDistValue" = type { i64, i64, float }

; Function Attrs: mustprogress nounwind uwtable
define linkonce_odr noundef nonnull align 8 dereferenceable(24) ptr @_ZNSt6vectorIS_IdSaIdEESaIS1_EEixEm(ptr noundef nonnull align 8 dereferenceable(24) %0, i64 noundef %1) #2 comdat align 2 {
  %3 = alloca ptr, align 8
  %4 = alloca i64, align 8
  store ptr %0, ptr %3, align 8
  store i64 %1, ptr %4, align 8
  %5 = load ptr, ptr %3, align 8
  %6 = getelementptr inbounds %"struct.std::_Vector_base.1", ptr %5, i32 0, i32 0
  %7 = getelementptr inbounds %"struct.std::_Vector_base<std::vector<double>, std::allocator<std::vector<double>>>::_Vector_impl_data", ptr %6, i32 0, i32 0
  %8 = load ptr, ptr %7, align 8
  %9 = load i64, ptr %4, align 8
  %10 = getelementptr inbounds %"class.std::vector", ptr %8, i64 %9
  ret ptr %10
}

; Function Attrs: mustprogress uwtable
define noundef double @_ZN3gmx22ComputeDebyeScattering13getFormFactorEiid(ptr noundef nonnull align 8 dereferenceable(153) %0, i32 noundef %1, i32 noundef %2, double noundef %3) #0 align 2 {
  %5 = alloca ptr, align 8
  %6 = alloca i32, align 4
  %7 = alloca i32, align 4
  %8 = alloca double, align 8
  store ptr %0, ptr %5, align 8
  store i32 %1, ptr %6, align 4
  store i32 %2, ptr %7, align 4
  store double %3, ptr %8, align 8
  %9 = load ptr, ptr %5, align 8
  %10 = load i32, ptr %6, align 4
  %11 = load double, ptr %8, align 8
  %12 = load ptr, ptr %9, align 8
  %13 = getelementptr inbounds ptr, ptr %12, i64 2
  %14 = load ptr, ptr %13, align 8
  %15 = call noundef double %14(ptr noundef nonnull align 8 dereferenceable(153) %9, i32 noundef %10, double noundef %11)
  %16 = load i32, ptr %7, align 4
  %17 = load double, ptr %8, align 8
  %18 = load ptr, ptr %9, align 8
  %19 = getelementptr inbounds ptr, ptr %18, i64 2
  %20 = load ptr, ptr %19, align 8
  %21 = call noundef double %20(ptr noundef nonnull align 8 dereferenceable(153) %9, i32 noundef %16, double noundef %17)
  %22 = fmul double %15, %21
  ret double %22
}

; Function Attrs: mustprogress nounwind uwtable
define linkonce_odr noundef nonnull align 8 dereferenceable(8) ptr @_ZNSt6vectorIdSaIdEEixEm(ptr noundef nonnull align 8 dereferenceable(24) %0, i64 noundef %1) #2 comdat align 2 {
  %3 = alloca ptr, align 8
  %4 = alloca i64, align 8
  store ptr %0, ptr %3, align 8
  store i64 %1, ptr %4, align 8
  %5 = load ptr, ptr %3, align 8
  %6 = getelementptr inbounds %"struct.std::_Vector_base", ptr %5, i32 0, i32 0
  %7 = getelementptr inbounds %"struct.std::_Vector_base<double, std::allocator<double>>::_Vector_impl_data", ptr %6, i32 0, i32 0
  %8 = load ptr, ptr %7, align 8
  %9 = load i64, ptr %4, align 8
  %10 = getelementptr inbounds double, ptr %8, i64 %9
  ret ptr %10
}

; Function Attrs: mustprogress nounwind uwtable
define linkonce_odr noundef i64 @_ZNKSt6vectorIdSaIdEE4sizeEv(ptr noundef nonnull align 8 dereferenceable(24) %0) #2 comdat align 2 {
  %2 = alloca ptr, align 8
  store ptr %0, ptr %2, align 8
  %3 = load ptr, ptr %2, align 8
  %4 = getelementptr inbounds %"struct.std::_Vector_base", ptr %3, i32 0, i32 0
  %5 = getelementptr inbounds %"struct.std::_Vector_base<double, std::allocator<double>>::_Vector_impl_data", ptr %4, i32 0, i32 1
  %6 = load ptr, ptr %5, align 8
  %7 = getelementptr inbounds %"struct.std::_Vector_base", ptr %3, i32 0, i32 0
  %8 = getelementptr inbounds %"struct.std::_Vector_base<double, std::allocator<double>>::_Vector_impl_data", ptr %7, i32 0, i32 0
  %9 = load ptr, ptr %8, align 8
  %10 = ptrtoint ptr %6 to i64
  %11 = ptrtoint ptr %9 to i64
  %12 = sub i64 %10, %11
  %13 = sdiv exact i64 %12, 8
  ret i64 %13
}

; Function Attrs: mustprogress uwtable
define void @_ZN3gmx22ComputeDebyeScattering13addPairToHistENS_13PairDistValueE(ptr noundef nonnull align 8 dereferenceable(153) %0, ptr noundef byval(%"struct.gmx::PairDistValue") align 8 %1) #0 align 2 {
  %3 = alloca ptr, align 8
  %4 = alloca i64, align 8
  %5 = alloca i64, align 8
  store ptr %0, ptr %3, align 8
  %6 = load ptr, ptr %3, align 8
  %7 = getelementptr inbounds %"struct.gmx::PairDistValue", ptr %1, i32 0, i32 2
  %8 = load float, ptr %7, align 8
  %9 = fpext float %8 to double
  %10 = getelementptr inbounds %"class.gmx::ComputeDebyeScattering", ptr %6, i32 0, i32 1
  %11 = load double, ptr %10, align 8
  %12 = fdiv double %9, %11
  %13 = call double @llvm.floor.f64(double %12)
  %14 = fptoui double %13 to i64
  store i64 %14, ptr %4, align 8
  %15 = getelementptr inbounds %"class.gmx::ComputeDebyeScattering", ptr %6, i32 0, i32 9
  %16 = load i8, ptr %15, align 8
  %17 = trunc i8 %16 to i1
  br i1 %17, label %18, label %47

18:                                               ; preds = %2
  store i64 0, ptr %5, align 8
  br label %19

19:                                               ; preds = %43, %18
  %20 = load i64, ptr %5, align 8
  %21 = getelementptr inbounds %"class.gmx::ComputeDebyeScattering", ptr %6, i32 0, i32 4
  %22 = call noundef i64 @_ZNKSt6vectorIdSaIdEE4sizeEv(ptr noundef nonnull align 8 dereferenceable(24) %21) #13
  %23 = icmp ne i64 %20, %22
  br i1 %23, label %24, label %46

24:                                               ; preds = %19
  %25 = getelementptr inbounds %"struct.gmx::PairDistValue", ptr %1, i32 0, i32 0
  %26 = load i64, ptr %25, align 8
  %27 = trunc i64 %26 to i32
  %28 = getelementptr inbounds %"struct.gmx::PairDistValue", ptr %1, i32 0, i32 1
  %29 = load i64, ptr %28, align 8
  %30 = trunc i64 %29 to i32
  %31 = getelementptr inbounds %"class.gmx::ComputeDebyeScattering", ptr %6, i32 0, i32 4
  %32 = load i64, ptr %5, align 8
  %33 = call noundef nonnull align 8 dereferenceable(8) ptr @_ZNSt6vectorIdSaIdEEixEm(ptr noundef nonnull align 8 dereferenceable(24) %31, i64 noundef %32) #13
  %34 = load double, ptr %33, align 8
  %35 = call noundef double @_ZN3gmx22ComputeDebyeScattering13getFormFactorEiid(ptr noundef nonnull align 8 dereferenceable(153) %6, i32 noundef %27, i32 noundef %30, double noundef %34)
  %36 = getelementptr inbounds %"class.gmx::ComputeDebyeScattering", ptr %6, i32 0, i32 8
  %37 = load i64, ptr %5, align 8
  %38 = call noundef nonnull align 8 dereferenceable(24) ptr @_ZNSt6vectorIS_IdSaIdEESaIS1_EEixEm(ptr noundef nonnull align 8 dereferenceable(24) %36, i64 noundef %37) #13
  %39 = load i64, ptr %4, align 8
  %40 = call noundef nonnull align 8 dereferenceable(8) ptr @_ZNSt6vectorIdSaIdEEixEm(ptr noundef nonnull align 8 dereferenceable(24) %38, i64 noundef %39) #13
  %41 = load double, ptr %40, align 8
  %42 = fadd double %41, %35
  store double %42, ptr %40, align 8
  br label %43

43:                                               ; preds = %24
  %44 = load i64, ptr %5, align 8
  %45 = add i64 %44, 1
  store i64 %45, ptr %5, align 8
  br label %19, !llvm.loop !17

46:                                               ; preds = %19
  br label %60

47:                                               ; preds = %2
  %48 = getelementptr inbounds %"struct.gmx::PairDistValue", ptr %1, i32 0, i32 0
  %49 = load i64, ptr %48, align 8
  %50 = trunc i64 %49 to i32
  %51 = getelementptr inbounds %"struct.gmx::PairDistValue", ptr %1, i32 0, i32 1
  %52 = load i64, ptr %51, align 8
  %53 = trunc i64 %52 to i32
  %54 = call noundef double @_ZN3gmx22ComputeDebyeScattering13getFormFactorEiid(ptr noundef nonnull align 8 dereferenceable(153) %6, i32 noundef %50, i32 noundef %53, double noundef 0.000000e+00)
  %55 = getelementptr inbounds %"class.gmx::ComputeDebyeScattering", ptr %6, i32 0, i32 7
  %56 = load i64, ptr %4, align 8
  %57 = call noundef nonnull align 8 dereferenceable(8) ptr @_ZNSt6vectorIdSaIdEEixEm(ptr noundef nonnull align 8 dereferenceable(24) %55, i64 noundef %56) #13
  %58 = load double, ptr %57, align 8
  %59 = fadd double %58, %54
  store double %59, ptr %57, align 8
  br label %60

60:                                               ; preds = %47, %46
  ret void
}