; Function Attrs: mustprogress uwtable
define void @_ZN3gmx22ComputeDebyeScattering13addPairToHistENS_13PairDistValueE(ptr noundef nonnull align 8 dereferenceable(153) %0, ptr nocapture noundef readonly byval(%"struct.gmx::PairDistValue") align 8 %1) local_unnamed_addr #0 align 2 {
  %3 = getelementptr inbounds i8, ptr %1, i64 16
  %4 = load float, ptr %3, align 8
  %5 = fpext float %4 to double
  %6 = getelementptr inbounds i8, ptr %0, i64 8
  %7 = load double, ptr %6, align 8
  %8 = fdiv double %5, %7
  %9 = tail call double @llvm.floor.f64(double %8)
  %10 = fptoui double %9 to i64
  %11 = getelementptr inbounds i8, ptr %0, i64 152
  %12 = load i8, ptr %11, align 8
  %13 = trunc i8 %12 to i1
  br i1 %13, label %.preheader, label %50

.preheader:                                       ; preds = %2
  %14 = getelementptr inbounds i8, ptr %0, i64 32
  %15 = getelementptr inbounds i8, ptr %0, i64 40
  %16 = load ptr, ptr %15, align 8
  %17 = load ptr, ptr %14, align 8
  %.not6 = icmp eq ptr %16, %17
  br i1 %.not6, label %.loopexit, label %.lr.ph

.lr.ph:                                           ; preds = %.preheader
  %18 = load i64, ptr %1, align 8
  %19 = trunc i64 %18 to i32
  %20 = getelementptr inbounds i8, ptr %1, i64 8
  %21 = load i64, ptr %20, align 8
  %22 = trunc i64 %21 to i32
  %23 = getelementptr inbounds i8, ptr %0, i64 128
  br label %24

24:                                               ; preds = %.lr.ph, %24
  %25 = phi ptr [ %17, %.lr.ph ], [ %45, %24 ]
  %.07 = phi i64 [ 0, %.lr.ph ], [ %43, %24 ]
  %26 = getelementptr inbounds double, ptr %25, i64 %.07
  %27 = load double, ptr %26, align 8
  %28 = load ptr, ptr %0, align 8
  %29 = getelementptr inbounds i8, ptr %28, i64 16
  %30 = load ptr, ptr %29, align 8
  %31 = tail call noundef double %30(ptr noundef nonnull align 8 dereferenceable(153) %0, i32 noundef %19, double noundef %27)
  %32 = load ptr, ptr %0, align 8
  %33 = getelementptr inbounds i8, ptr %32, i64 16
  %34 = load ptr, ptr %33, align 8
  %35 = tail call noundef double %34(ptr noundef nonnull align 8 dereferenceable(153) %0, i32 noundef %22, double noundef %27)
  %36 = fmul double %31, %35
  %37 = load ptr, ptr %23, align 8
  %38 = getelementptr inbounds %"class.std::vector", ptr %37, i64 %.07
  %39 = load ptr, ptr %38, align 8
  %40 = getelementptr inbounds double, ptr %39, i64 %10
  %41 = load double, ptr %40, align 8
  %42 = fadd double %36, %41
  store double %42, ptr %40, align 8
  %43 = add i64 %.07, 1
  %44 = load ptr, ptr %15, align 8
  %45 = load ptr, ptr %14, align 8
  %46 = ptrtoint ptr %44 to i64
  %47 = ptrtoint ptr %45 to i64
  %48 = sub i64 %46, %47
  %49 = ashr exact i64 %48, 3
  %.not = icmp eq i64 %43, %49
  br i1 %.not, label %.loopexit, label %24, !llvm.loop !20

50:                                               ; preds = %2
  %51 = load i64, ptr %1, align 8
  %52 = trunc i64 %51 to i32
  %53 = getelementptr inbounds i8, ptr %1, i64 8
  %54 = load i64, ptr %53, align 8
  %55 = trunc i64 %54 to i32
  %56 = load ptr, ptr %0, align 8
  %57 = getelementptr inbounds i8, ptr %56, i64 16
  %58 = load ptr, ptr %57, align 8
  %59 = tail call noundef double %58(ptr noundef nonnull align 8 dereferenceable(153) %0, i32 noundef %52, double noundef 0.000000e+00)
  %60 = load ptr, ptr %0, align 8
  %61 = getelementptr inbounds i8, ptr %60, i64 16
  %62 = load ptr, ptr %61, align 8
  %63 = tail call noundef double %62(ptr noundef nonnull align 8 dereferenceable(153) %0, i32 noundef %55, double noundef 0.000000e+00)
  %64 = fmul double %59, %63
  %65 = getelementptr inbounds i8, ptr %0, i64 104
  %66 = load ptr, ptr %65, align 8
  %67 = getelementptr inbounds double, ptr %66, i64 %10
  %68 = load double, ptr %67, align 8
  %69 = fadd double %64, %68
  store double %69, ptr %67, align 8
  br label %.loopexit

.loopexit:                                        ; preds = %24, %.preheader, %50
  ret void
}